target datalayout = "e-m:e-p270:32:32-p271:32:32-p272:64:64-i64:64-i128:128-f80:128-n8:16:32:64-S128"
target triple = "x86_64-pc-linux-gnu"

%struct.tok_state = type { ptr, ptr, ptr, i32, ptr, ptr, ptr, ptr, i32, ptr, i32, i32, [100 x i32], i32, i32, ptr, ptr, i32, i32, i32, i32, i32, [200 x i8], [200 x i32], [200 x i32], ptr, [100 x i32], i32, i32, ptr, i32, ptr, ptr, ptr, ptr, ptr, ptr, ptr, ptr, i32, i32, ptr, i32, [150 x %struct._tokenizer_mode], i32, i32, i32, i32 }
%struct._tokenizer_mode = type { i32, i32, i32, i8, i32, i32, ptr, ptr, i32, i64, i64, i64, i64, ptr, i32, i32 }

; Function Attrs: nounwind uwtable
define internal i32 @buf_getc(ptr noundef %0) #0 {
  %2 = alloca ptr, align 8
  store ptr %0, ptr %2, align 8, !tbaa !11
  %3 = load ptr, ptr %2, align 8, !tbaa !11
  %4 = getelementptr inbounds nuw %struct.tok_state, ptr %3, i32 0, i32 37
  %5 = load ptr, ptr %4, align 8, !tbaa !24
  %6 = getelementptr i8, ptr %5, i32 1
  store ptr %6, ptr %4, align 8, !tbaa !24
  %7 = load i8, ptr %5, align 1, !tbaa !25
  %8 = sext i8 %7 to i32
  %9 = and i32 %8, 255
  %10 = trunc i32 %9 to i8
  %11 = zext i8 %10 to i32
  ret i32 %11
}