; Function Attrs: mustprogress nofree norecurse nosync nounwind willreturn memory(read, argmem: readwrite, inaccessiblemem: none) uwtable
define internal range(i32 0, 256) i32 @buf_getc(ptr noundef captures(none) %0) #5 {
  %2 = getelementptr inbounds nuw i8, ptr %0, i64 2816
  %3 = load ptr, ptr %2, align 8, !tbaa !14
  %4 = getelementptr i8, ptr %3, i64 1
  store ptr %4, ptr %2, align 8, !tbaa !14
  %5 = load i8, ptr %3, align 1, !tbaa !15
  %6 = zext i8 %5 to i32
  ret i32 %6
}